target datalayout = "e-m:e-p270:32:32-p271:32:32-p272:64:64-i64:64-i128:128-f80:128-n8:16:32:64-S128"
target triple = "x86_64-pc-linux-gnu"

%struct._object = type { i64, ptr }
%"class.nanobind::handle" = type { ptr }
%struct.D = type { i32 }
%"struct.nanobind::detail::type_caster.461" = type { %"struct.nanobind::detail::type_caster_base.462" }
%"struct.nanobind::detail::type_caster_base.462" = type { ptr }
%"class.std::optional.514" = type { %"struct.std::_Optional_base.515" }
%"struct.std::_Optional_base.515" = type { %"struct.std::_Optional_payload.517" }
%"struct.std::_Optional_payload.517" = type { %"struct.std::_Optional_payload.base.521", [3 x i8] }
%"struct.std::_Optional_payload.base.521" = type { %"struct.std::_Optional_payload_base.base.520" }
%"struct.std::_Optional_payload_base.base.520" = type <{ %"union.std::_Optional_payload_base<D>::_Storage", i8 }>
%"union.std::_Optional_payload_base<D>::_Storage" = type { %struct.D }
%"struct.nanobind::detail::optional_caster.534" = type { %"class.std::optional.514" }
%"struct.std::_Optional_payload_base.519" = type <{ %"union.std::_Optional_payload_base<D>::_Storage", i8, [3 x i8] }>

@_Py_NoneStruct = external global %struct._object, align 8
@_ZTIZL30nanobind_init_test_classes_extRN8nanobind7module_EE1D = internal constant { ptr, ptr } { ptr getelementptr inbounds (ptr, ptr @_ZTVN10__cxxabiv117__class_type_infoE, i64 2), ptr @_ZTSZL30nanobind_init_test_classes_extRN8nanobind7module_EE1D }, align 8

; Function Attrs: mustprogress nounwind optsize uwtable
define internal void @_ZZL30nanobind_init_test_classes_extRN8nanobind7module_EEN1DD2Ev(ptr noundef nonnull align 4 dereferenceable(4) %0) unnamed_addr #1 align 2 {
  %2 = alloca ptr, align 8
  store ptr %0, ptr %2, align 8, !tbaa !893
  %3 = load ptr, ptr %2, align 8
  %4 = getelementptr inbounds nuw %struct.D, ptr %3, i32 0, i32 0
  store volatile i32 -100, ptr %4, align 4, !tbaa !895
  ret void
}

; Function Attrs: inlinehint mustprogress nounwind optsize uwtable
define internal void @_ZSt10_ConstructIZL30nanobind_init_test_classes_extRN8nanobind7module_EE1DJRS3_EEvPT_DpOT0_(ptr noundef %0, ptr noundef nonnull align 4 dereferenceable(4) %1) #12 {
  %3 = alloca ptr, align 8
  %4 = alloca ptr, align 8
  store ptr %0, ptr %3, align 8, !tbaa !893
  store ptr %1, ptr %4, align 8, !tbaa !893
  %5 = load ptr, ptr %3, align 8, !tbaa !893
  %6 = load ptr, ptr %4, align 8, !tbaa !893
  call void @llvm.memcpy.p0.p0.i64(ptr align 4 %5, ptr align 4 %6, i64 4, i1 false), !tbaa.struct !892
  ret void
}

; Function Attrs: mustprogress nounwind optsize uwtable
define internal void @_ZNSt22_Optional_payload_baseIZL30nanobind_init_test_classes_extRN8nanobind7module_EE1DE10_M_destroyEv(ptr noundef nonnull align 4 dereferenceable(5) %0) #1 align 2 {
  %2 = alloca ptr, align 8
  store ptr %0, ptr %2, align 8, !tbaa !1008
  %3 = load ptr, ptr %2, align 8
  %4 = getelementptr inbounds nuw %"struct.std::_Optional_payload_base.519", ptr %3, i32 0, i32 1
  store i8 0, ptr %4, align 4, !tbaa !1010
  %5 = getelementptr inbounds nuw %"struct.std::_Optional_payload_base.519", ptr %3, i32 0, i32 0
  call void @_ZZL30nanobind_init_test_classes_extRN8nanobind7module_EEN1DD2Ev(ptr noundef nonnull align 4 dereferenceable(4) %5) #24
  ret void
}

; Function Attrs: mustprogress nounwind optsize uwtable
define internal noundef nonnull align 4 dereferenceable(4) ptr @_ZNSt22_Optional_payload_baseIZL30nanobind_init_test_classes_extRN8nanobind7module_EE1DE6_M_getEv(ptr noundef nonnull align 4 dereferenceable(5) %0) #1 align 2 {
  %2 = alloca ptr, align 8
  store ptr %0, ptr %2, align 8, !tbaa !1008
  %3 = load ptr, ptr %2, align 8
  %4 = getelementptr inbounds nuw %"struct.std::_Optional_payload_base.519", ptr %3, i32 0, i32 0
  ret ptr %4
}

; Function Attrs: mustprogress nounwind optsize uwtable
define internal void @_ZNSt22_Optional_payload_baseIZL30nanobind_init_test_classes_extRN8nanobind7module_EE1DE12_M_constructIJRS3_EEEvDpOT_(ptr noundef nonnull align 4 dereferenceable(5) %0, ptr noundef nonnull align 4 dereferenceable(4) %1) #1 align 2 personality ptr @__gxx_personality_v0 {
  %3 = alloca ptr, align 8
  %4 = alloca ptr, align 8
  store ptr %0, ptr %3, align 8, !tbaa !1008
  store ptr %1, ptr %4, align 8, !tbaa !893
  %5 = load ptr, ptr %3, align 8
  %6 = getelementptr inbounds nuw %"struct.std::_Optional_payload_base.519", ptr %5, i32 0, i32 0
  %7 = load ptr, ptr %4, align 8, !tbaa !893
  invoke void @_ZSt10_ConstructIZL30nanobind_init_test_classes_extRN8nanobind7module_EE1DJRS3_EEvPT_DpOT0_(ptr noundef %6, ptr noundef nonnull align 4 dereferenceable(4) %7) #25
          to label %8 unwind label %10

8:                                                ; preds = %2
  %9 = getelementptr inbounds nuw %"struct.std::_Optional_payload_base.519", ptr %5, i32 0, i32 1
  store i8 1, ptr %9, align 4, !tbaa !1010
  ret void

10:                                               ; preds = %2
  %11 = landingpad { ptr, i32 }
          catch ptr null
  %12 = extractvalue { ptr, i32 } %11, 0
  call void @__clang_call_terminate(ptr %12) #26
  unreachable
}

; Function Attrs: mustprogress nounwind optsize uwtable
define internal void @_ZNSt22_Optional_payload_baseIZL30nanobind_init_test_classes_extRN8nanobind7module_EE1DE8_M_resetEv(ptr noundef nonnull align 4 dereferenceable(5) %0) #1 align 2 {
  %2 = alloca ptr, align 8
  store ptr %0, ptr %2, align 8, !tbaa !1008
  %3 = load ptr, ptr %2, align 8
  %4 = getelementptr inbounds nuw %"struct.std::_Optional_payload_base.519", ptr %3, i32 0, i32 1
  %5 = load i8, ptr %4, align 4, !tbaa !1010, !range !218, !noundef !219
  %6 = trunc i8 %5 to i1
  br i1 %6, label %7, label %8

7:                                                ; preds = %1
  call void @_ZNSt22_Optional_payload_baseIZL30nanobind_init_test_classes_extRN8nanobind7module_EE1DE10_M_destroyEv(ptr noundef nonnull align 4 dereferenceable(5) %3) #24
  br label %8

8:                                                ; preds = %7, %1
  ret void
}

; Function Attrs: mustprogress nounwind optsize uwtable
define internal noundef nonnull align 4 dereferenceable(4) ptr @_ZNSt19_Optional_base_implIZL30nanobind_init_test_classes_extRN8nanobind7module_EE1DSt14_Optional_baseIS3_Lb0ELb0EEE6_M_getEv(ptr noundef nonnull align 1 dereferenceable(1) %0) #1 align 2 {
  %2 = alloca ptr, align 8
  store ptr %0, ptr %2, align 8, !tbaa !1014
  %3 = load ptr, ptr %2, align 8
  br label %4

4:                                                ; preds = %1
  br label %5

5:                                                ; preds = %4
  br label %6

6:                                                ; preds = %5
  %7 = getelementptr inbounds nuw %"struct.std::_Optional_base.515", ptr %3, i32 0, i32 0
  %8 = call noundef nonnull align 4 dereferenceable(4) ptr @_ZNSt22_Optional_payload_baseIZL30nanobind_init_test_classes_extRN8nanobind7module_EE1DE6_M_getEv(ptr noundef nonnull align 4 dereferenceable(5) %7) #24
  ret ptr %8
}

; Function Attrs: mustprogress nounwind optsize uwtable
define internal void @_ZNSt19_Optional_base_implIZL30nanobind_init_test_classes_extRN8nanobind7module_EE1DSt14_Optional_baseIS3_Lb0ELb0EEE12_M_constructIJRS3_EEEvDpOT_(ptr noundef nonnull align 1 dereferenceable(1) %0, ptr noundef nonnull align 4 dereferenceable(4) %1) #1 align 2 {
  %3 = alloca ptr, align 8
  %4 = alloca ptr, align 8
  store ptr %0, ptr %3, align 8, !tbaa !1014
  store ptr %1, ptr %4, align 8, !tbaa !893
  %5 = load ptr, ptr %3, align 8
  %6 = getelementptr inbounds nuw %"struct.std::_Optional_base.515", ptr %5, i32 0, i32 0
  %7 = load ptr, ptr %4, align 8, !tbaa !893
  call void @_ZNSt22_Optional_payload_baseIZL30nanobind_init_test_classes_extRN8nanobind7module_EE1DE12_M_constructIJRS3_EEEvDpOT_(ptr noundef nonnull align 4 dereferenceable(5) %6, ptr noundef nonnull align 4 dereferenceable(4) %7) #24
  ret void
}

; Function Attrs: mustprogress nounwind optsize uwtable
define internal void @_ZNSt19_Optional_base_implIZL30nanobind_init_test_classes_extRN8nanobind7module_EE1DSt14_Optional_baseIS3_Lb0ELb0EEE8_M_resetEv(ptr noundef nonnull align 1 dereferenceable(1) %0) #1 align 2 {
  %2 = alloca ptr, align 8
  store ptr %0, ptr %2, align 8, !tbaa !1014
  %3 = load ptr, ptr %2, align 8
  %4 = getelementptr inbounds nuw %"struct.std::_Optional_base.515", ptr %3, i32 0, i32 0
  call void @_ZNSt22_Optional_payload_baseIZL30nanobind_init_test_classes_extRN8nanobind7module_EE1DE8_M_resetEv(ptr noundef nonnull align 4 dereferenceable(5) %4) #24
  ret void
}

; Function Attrs: alwaysinline mustprogress nounwind optsize uwtable
define linkonce_odr hidden noundef ptr @_ZNK8nanobind6handle3ptrEv(ptr noundef nonnull align 8 dereferenceable(8) %0) #5 comdat align 2 {
  %2 = alloca ptr, align 8
  store ptr %0, ptr %2, align 8, !tbaa !28
  %3 = load ptr, ptr %2, align 8
  %4 = getelementptr inbounds nuw %"class.nanobind::handle", ptr %3, i32 0, i32 0
  %5 = load ptr, ptr %4, align 8, !tbaa !30
  ret ptr %5
}

; Function Attrs: mustprogress nounwind optsize uwtable
define linkonce_odr hidden noundef nonnull align 8 dereferenceable(8) ptr @_ZNK8nanobind6detail3apiINS_6handleEE7derivedEv(ptr noundef nonnull align 1 dereferenceable(1) %0) #1 comdat align 2 {
  %2 = alloca ptr, align 8
  store ptr %0, ptr %2, align 8, !tbaa !146
  %3 = load ptr, ptr %2, align 8
  ret ptr %3
}

; Function Attrs: mustprogress nounwind optsize uwtable
define internal noundef nonnull align 4 dereferenceable(4) ptr @_ZNSt8optionalIZL30nanobind_init_test_classes_extRN8nanobind7module_EE1DE7emplaceIJRS3_EEENSt9enable_ifIX18is_constructible_vIS3_DpT_EES6_E4typeEDpOS8_(ptr noundef nonnull align 4 dereferenceable(8) %0, ptr noundef nonnull align 4 dereferenceable(4) %1) #1 align 2 {
  %3 = alloca ptr, align 8
  %4 = alloca ptr, align 8
  store ptr %0, ptr %3, align 8, !tbaa !990
  store ptr %1, ptr %4, align 8, !tbaa !893
  %5 = load ptr, ptr %3, align 8
  call void @_ZNSt19_Optional_base_implIZL30nanobind_init_test_classes_extRN8nanobind7module_EE1DSt14_Optional_baseIS3_Lb0ELb0EEE8_M_resetEv(ptr noundef nonnull align 1 dereferenceable(1) %5) #24
  %6 = load ptr, ptr %4, align 8, !tbaa !893
  call void @_ZNSt19_Optional_base_implIZL30nanobind_init_test_classes_extRN8nanobind7module_EE1DSt14_Optional_baseIS3_Lb0ELb0EEE12_M_constructIJRS3_EEEvDpOT_(ptr noundef nonnull align 1 dereferenceable(1) %5, ptr noundef nonnull align 4 dereferenceable(4) %6) #24
  %7 = call noundef nonnull align 4 dereferenceable(4) ptr @_ZNSt19_Optional_base_implIZL30nanobind_init_test_classes_extRN8nanobind7module_EE1DSt14_Optional_baseIS3_Lb0ELb0EEE6_M_getEv(ptr noundef nonnull align 1 dereferenceable(1) %5) #24
  ret ptr %7
}

; Function Attrs: mustprogress optsize uwtable
define internal noundef nonnull align 4 dereferenceable(4) ptr @_ZN8nanobind6detail16type_caster_baseIZL30nanobind_init_test_classes_extRNS_7module_EE1DEcvRS4_Ev(ptr noundef nonnull align 8 dereferenceable(8) %0) #3 align 2 {
  %2 = alloca ptr, align 8
  store ptr %0, ptr %2, align 8, !tbaa !914
  %3 = load ptr, ptr %2, align 8
  %4 = getelementptr inbounds nuw %"struct.nanobind::detail::type_caster_base.462", ptr %3, i32 0, i32 0
  %5 = load ptr, ptr %4, align 8, !tbaa !916
  call void @_ZN8nanobind6detail27raise_next_overload_if_nullEPv(ptr noundef %5) #25
  %6 = getelementptr inbounds nuw %"struct.nanobind::detail::type_caster_base.462", ptr %3, i32 0, i32 0
  %7 = load ptr, ptr %6, align 8, !tbaa !916
  ret ptr %7
}

; Function Attrs: mustprogress nounwind optsize uwtable
define internal noundef zeroext i1 @_ZNK8nanobind6detail16type_caster_baseIZL30nanobind_init_test_classes_extRNS_7module_EE1DE8can_castIS4_EEbv(ptr noundef nonnull align 8 dereferenceable(8) %0) #1 align 2 {
  %2 = alloca ptr, align 8
  store ptr %0, ptr %2, align 8, !tbaa !914
  %3 = load ptr, ptr %2, align 8
  %4 = getelementptr inbounds nuw %"struct.nanobind::detail::type_caster_base.462", ptr %3, i32 0, i32 0
  %5 = load ptr, ptr %4, align 8, !tbaa !916
  %6 = icmp ne ptr %5, null
  ret i1 %6
}

; Function Attrs: alwaysinline mustprogress nounwind optsize uwtable
define internal noundef zeroext i1 @_ZN8nanobind6detail16type_caster_baseIZL30nanobind_init_test_classes_extRNS_7module_EE1DE11from_pythonENS_6handleEhPNS0_12cleanup_listE(ptr noundef nonnull align 8 dereferenceable(8) %0, ptr %1, i8 noundef zeroext %2, ptr noundef %3) #5 align 2 {
  %5 = alloca %"class.nanobind::handle", align 8
  %6 = alloca ptr, align 8
  %7 = alloca i8, align 1
  %8 = alloca ptr, align 8
  %9 = getelementptr inbounds nuw %"class.nanobind::handle", ptr %5, i32 0, i32 0
  store ptr %1, ptr %9, align 8
  store ptr %0, ptr %6, align 8, !tbaa !914
  store i8 %2, ptr %7, align 1, !tbaa !42
  store ptr %3, ptr %8, align 8, !tbaa !426
  %10 = load ptr, ptr %6, align 8
  %11 = call noundef ptr @_ZNK8nanobind6handle3ptrEv(ptr noundef nonnull align 8 dereferenceable(8) %5) #25
  %12 = load i8, ptr %7, align 1, !tbaa !42
  %13 = load ptr, ptr %8, align 8, !tbaa !426
  %14 = getelementptr inbounds nuw %"struct.nanobind::detail::type_caster_base.462", ptr %10, i32 0, i32 0
  %15 = call noundef zeroext i1 @_ZN8nanobind6detail11nb_type_getEPKSt9type_infoP7_objecthPNS0_12cleanup_listEPPv(ptr noundef @_ZTIZL30nanobind_init_test_classes_extRN8nanobind7module_EE1D, ptr noundef %11, i8 noundef zeroext %12, ptr noundef %13, ptr noundef %14) #24
  ret i1 %15
}

; Function Attrs: alwaysinline mustprogress nounwind optsize uwtable
define internal noundef zeroext i8 @_ZN8nanobind6detail22flags_for_local_casterIZL30nanobind_init_test_classes_extRNS_7module_EE1DEEhh(i8 noundef zeroext %0) #5 {
  %2 = alloca i8, align 1
  %3 = alloca i8, align 1
  store i8 %0, ptr %2, align 1, !tbaa !42
  call void @llvm.lifetime.start.p0(i64 1, ptr %3) #2
  store i8 0, ptr %3, align 1, !tbaa !217
  %4 = load i8, ptr %2, align 1, !tbaa !42
  call void @llvm.lifetime.end.p0(i64 1, ptr %3) #2
  ret i8 %4
}

; Function Attrs: mustprogress nounwind optsize uwtable
define internal void @_ZNSt8optionalIZL30nanobind_init_test_classes_extRN8nanobind7module_EE1DE5resetEv(ptr noundef nonnull align 4 dereferenceable(8) %0) #1 align 2 {
  %2 = alloca ptr, align 8
  store ptr %0, ptr %2, align 8, !tbaa !990
  %3 = load ptr, ptr %2, align 8
  call void @_ZNSt19_Optional_base_implIZL30nanobind_init_test_classes_extRN8nanobind7module_EE1DSt14_Optional_baseIS3_Lb0ELb0EEE8_M_resetEv(ptr noundef nonnull align 1 dereferenceable(1) %3) #24
  ret void
}

; Function Attrs: alwaysinline mustprogress nounwind optsize uwtable
define linkonce_odr hidden noundef zeroext i1 @_ZNK8nanobind6detail3apiINS_6handleEE7is_noneEv(ptr noundef nonnull align 1 dereferenceable(1) %0) #5 comdat align 2 {
  %2 = alloca ptr, align 8
  store ptr %0, ptr %2, align 8, !tbaa !146
  %3 = load ptr, ptr %2, align 8
  %4 = call noundef nonnull align 8 dereferenceable(8) ptr @_ZNK8nanobind6detail3apiINS_6handleEE7derivedEv(ptr noundef nonnull align 1 dereferenceable(1) %3) #25
  %5 = call noundef ptr @_ZNK8nanobind6handle3ptrEv(ptr noundef nonnull align 8 dereferenceable(8) %4) #25
  %6 = icmp eq ptr %5, @_Py_NoneStruct
  ret i1 %6
}

; Function Attrs: mustprogress nounwind optsize uwtable
define internal noundef zeroext i1 @_ZN8nanobind6detail15optional_casterISt8optionalIZL30nanobind_init_test_classes_extRNS_7module_EE1DES5_E11from_pythonENS_6handleEhPNS0_12cleanup_listE(ptr noundef nonnull align 4 dereferenceable(8) %0, ptr %1, i8 noundef zeroext %2, ptr noundef %3) #1 align 2 personality ptr @__gxx_personality_v0 {
  %5 = alloca i1, align 1
  %6 = alloca %"class.nanobind::handle", align 8
  %7 = alloca ptr, align 8
  %8 = alloca i8, align 1
  %9 = alloca ptr, align 8
  %10 = alloca %"struct.nanobind::detail::type_caster.461", align 8
  %11 = alloca %"class.nanobind::handle", align 8
  %12 = alloca i32, align 4
  %13 = getelementptr inbounds nuw %"class.nanobind::handle", ptr %6, i32 0, i32 0
  store ptr %1, ptr %13, align 8
  store ptr %0, ptr %7, align 8, !tbaa !1002
  store i8 %2, ptr %8, align 1, !tbaa !42
  store ptr %3, ptr %9, align 8, !tbaa !426
  %14 = load ptr, ptr %7, align 8
  %15 = call noundef zeroext i1 @_ZNK8nanobind6detail3apiINS_6handleEE7is_noneEv(ptr noundef nonnull align 1 dereferenceable(1) %6) #25
  br i1 %15, label %16, label %18

16:                                               ; preds = %4
  %17 = getelementptr inbounds nuw %"struct.nanobind::detail::optional_caster.534", ptr %14, i32 0, i32 0
  call void @_ZNSt8optionalIZL30nanobind_init_test_classes_extRN8nanobind7module_EE1DE5resetEv(ptr noundef nonnull align 4 dereferenceable(8) %17) #24
  store i1 true, ptr %5, align 1
  br label %34

18:                                               ; preds = %4
  call void @llvm.lifetime.start.p0(i64 8, ptr %10) #2
  call void @llvm.memcpy.p0.p0.i64(ptr align 8 %11, ptr align 8 %6, i64 8, i1 false)
  %19 = load i8, ptr %8, align 1, !tbaa !42
  %20 = call noundef zeroext i8 @_ZN8nanobind6detail22flags_for_local_casterIZL30nanobind_init_test_classes_extRNS_7module_EE1DEEhh(i8 noundef zeroext %19) #24
  %21 = load ptr, ptr %9, align 8, !tbaa !426
  %22 = getelementptr inbounds nuw %"class.nanobind::handle", ptr %11, i32 0, i32 0
  %23 = load ptr, ptr %22, align 8
  %24 = call noundef zeroext i1 @_ZN8nanobind6detail16type_caster_baseIZL30nanobind_init_test_classes_extRNS_7module_EE1DE11from_pythonENS_6handleEhPNS0_12cleanup_listE(ptr noundef nonnull align 8 dereferenceable(8) %10, ptr %23, i8 noundef zeroext %20, ptr noundef %21) #24
  br i1 %24, label %25, label %27

25:                                               ; preds = %18
  %26 = call noundef zeroext i1 @_ZNK8nanobind6detail16type_caster_baseIZL30nanobind_init_test_classes_extRNS_7module_EE1DE8can_castIS4_EEbv(ptr noundef nonnull align 8 dereferenceable(8) %10) #24
  br i1 %26, label %28, label %27

27:                                               ; preds = %25, %18
  store i1 false, ptr %5, align 1
  store i32 1, ptr %12, align 4
  br label %33

28:                                               ; preds = %25
  %29 = getelementptr inbounds nuw %"struct.nanobind::detail::optional_caster.534", ptr %14, i32 0, i32 0
  %30 = invoke noundef nonnull align 4 dereferenceable(4) ptr @_ZN8nanobind6detail16type_caster_baseIZL30nanobind_init_test_classes_extRNS_7module_EE1DEcvRS4_Ev(ptr noundef nonnull align 8 dereferenceable(8) %10) #25
          to label %31 unwind label %36

31:                                               ; preds = %28
  %32 = call noundef nonnull align 4 dereferenceable(4) ptr @_ZNSt8optionalIZL30nanobind_init_test_classes_extRN8nanobind7module_EE1DE7emplaceIJRS3_EEENSt9enable_ifIX18is_constructible_vIS3_DpT_EES6_E4typeEDpOS8_(ptr noundef nonnull align 4 dereferenceable(8) %29, ptr noundef nonnull align 4 dereferenceable(4) %30) #24
  store i1 true, ptr %5, align 1
  store i32 1, ptr %12, align 4
  br label %33

33:                                               ; preds = %31, %27
  call void @llvm.lifetime.end.p0(i64 8, ptr %10) #2
  br label %34

34:                                               ; preds = %33, %16
  %35 = load i1, ptr %5, align 1
  ret i1 %35

36:                                               ; preds = %28
  %37 = landingpad { ptr, i32 }
          catch ptr null
  %38 = extractvalue { ptr, i32 } %37, 0
  call void @__clang_call_terminate(ptr %38) #26
  unreachable
}