; Function Attrs: mustprogress nounwind optsize uwtable
define internal fastcc noundef zeroext i1 @_ZN8nanobind6detail15optional_casterISt8optionalIZL30nanobind_init_test_classes_extRNS_7module_EE1DES5_E11from_pythonENS_6handleEhPNS0_12cleanup_listE(ptr noundef nonnull align 4 dereferenceable(8) %0, ptr %1, ptr noundef nonnull %2) unnamed_addr #0 align 2 personality ptr @__gxx_personality_v0 {
  %4 = alloca %"struct.nanobind::detail::type_caster.461", align 8
  %5 = icmp eq ptr %1, @_Py_NoneStruct
  br i1 %5, label %6, label %11

6:                                                ; preds = %3
  %7 = getelementptr inbounds nuw i8, ptr %0, i64 4
  %8 = load i8, ptr %7, align 4, !tbaa !419, !range !144, !noundef !145
  %9 = trunc nuw i8 %8 to i1
  br i1 %9, label %10, label %_ZNSt8optionalIZL30nanobind_init_test_classes_extRN8nanobind7module_EE1DE5resetEv.exit

10:                                               ; preds = %6
  store i8 0, ptr %7, align 4, !tbaa !419
  store volatile i32 -100, ptr %0, align 4, !tbaa !393
  br label %_ZNSt8optionalIZL30nanobind_init_test_classes_extRN8nanobind7module_EE1DE5resetEv.exit

11:                                               ; preds = %3
  call void @llvm.lifetime.start.p0(i64 8, ptr nonnull %4) #37
  %12 = call noundef zeroext i1 @_ZN8nanobind6detail11nb_type_getEPKSt9type_infoP7_objecthPNS0_12cleanup_listEPPv(ptr noundef nonnull @_ZTIZL30nanobind_init_test_classes_extRN8nanobind7module_EE1D, ptr noundef %1, i8 noundef zeroext 9, ptr noundef nonnull %2, ptr noundef nonnull align 8 dereferenceable(8) %4) #35
  br i1 %12, label %13, label %21

13:                                               ; preds = %11
  %.val = load ptr, ptr %4, align 8, !tbaa !395
  %.not = icmp eq ptr %.val, null
  br i1 %.not, label %21, label %14

14:                                               ; preds = %13
  invoke void @_ZN8nanobind6detail27raise_next_overload_if_nullEPv(ptr noundef nonnull %.val) #38
          to label %15 unwind label %22

15:                                               ; preds = %14
  %16 = load ptr, ptr %4, align 8, !tbaa !395
  %17 = getelementptr inbounds nuw i8, ptr %0, i64 4
  %18 = load i8, ptr %17, align 4, !tbaa !419, !range !144, !noundef !145
  %19 = trunc nuw i8 %18 to i1
  br i1 %19, label %20, label %_ZNSt8optionalIZL30nanobind_init_test_classes_extRN8nanobind7module_EE1DE7emplaceIJRS3_EEENSt9enable_ifIX18is_constructible_vIS3_DpT_EES6_E4typeEDpOS8_.exit

20:                                               ; preds = %15
  store volatile i32 -100, ptr %0, align 4, !tbaa !393
  br label %_ZNSt8optionalIZL30nanobind_init_test_classes_extRN8nanobind7module_EE1DE7emplaceIJRS3_EEENSt9enable_ifIX18is_constructible_vIS3_DpT_EES6_E4typeEDpOS8_.exit

_ZNSt8optionalIZL30nanobind_init_test_classes_extRN8nanobind7module_EE1DE7emplaceIJRS3_EEENSt9enable_ifIX18is_constructible_vIS3_DpT_EES6_E4typeEDpOS8_.exit: ; preds = %15, %20
  %.val.i = load i32, ptr %16, align 4, !tbaa !32
  store i32 %.val.i, ptr %0, align 4, !tbaa !32
  store i8 1, ptr %17, align 4, !tbaa !419
  br label %21

21:                                               ; preds = %11, %13, %_ZNSt8optionalIZL30nanobind_init_test_classes_extRN8nanobind7module_EE1DE7emplaceIJRS3_EEENSt9enable_ifIX18is_constructible_vIS3_DpT_EES6_E4typeEDpOS8_.exit
  %.1 = phi i1 [ true, %_ZNSt8optionalIZL30nanobind_init_test_classes_extRN8nanobind7module_EE1DE7emplaceIJRS3_EEENSt9enable_ifIX18is_constructible_vIS3_DpT_EES6_E4typeEDpOS8_.exit ], [ false, %13 ], [ false, %11 ]
  call void @llvm.lifetime.end.p0(i64 8, ptr nonnull %4) #37
  br label %_ZNSt8optionalIZL30nanobind_init_test_classes_extRN8nanobind7module_EE1DE5resetEv.exit

_ZNSt8optionalIZL30nanobind_init_test_classes_extRN8nanobind7module_EE1DE5resetEv.exit: ; preds = %10, %6, %21
  %.0 = phi i1 [ %.1, %21 ], [ true, %6 ], [ true, %10 ]
  ret i1 %.0

22:                                               ; preds = %14
  %23 = landingpad { ptr, i32 }
          catch ptr null
  %24 = extractvalue { ptr, i32 } %23, 0
  call void @__clang_call_terminate(ptr %24) #39
  unreachable
}